(dp0
S'OriginalConfig'
p1
ccopy_reg
_reconstructor
p2
(cWMCore.Configuration
Configuration
p3
c__builtin__
object
p4
Ntp5
Rp6
(dp7
S'_internal_sections'
p8
(lp9
S'General'
p10
aS'JobType'
p11
aS'Data'
p12
aS'Site'
p13
aS'User'
p14
aS'Debug'
p15
asg13
g2
(cWMCore.Configuration
ConfigSection
p16
g4
Ntp17
Rp18
(dp19
S'_internal_skipChecks'
p20
I00
sS'_internal_name'
p21
g13
sS'_internal_settings'
p22
c__builtin__
set
p23
((lp24
S'storageSite'
p25
atp26
Rp27
sS'_internal_documentation'
p28
S''
p29
sS'_internal_docstrings'
p30
(dp31
sS'_internal_children'
p32
g23
((lp33
tp34
Rp35
sg25
S'T2_DE_DESY'
p36
sS'_internal_parent_ref'
p37
Nsbsg10
g2
(g16
g4
Ntp38
Rp39
(dp40
S'transferLogs'
p41
I01
sg20
I00
sg21
g10
sg22
g23
((lp42
S'workArea'
p43
aS'transferOutputs'
p44
ag41
aS'requestName'
p45
atp46
Rp47
sg28
g29
sg30
(dp48
sg44
I01
sg32
g23
((lp49
tp50
Rp51
sg45
S'5'
p52
sg37
Nsg43
S'/nfs/dust/cms/user/beozek/uuh2-106X_v2/CMSSW_10_6_28/src/UHH2/ZprimeSemiLeptonic/EFTvsUL/output_EFT/'
p53
sbsg14
g2
(g16
g4
Ntp54
Rp55
(dp56
g32
g23
((lp57
tp58
Rp59
sg20
I00
sg37
Nsg21
g14
sg22
g23
((lp60
tp61
Rp62
sg28
g29
sg30
(dp63
sbsg15
g2
(g16
g4
Ntp64
Rp65
(dp66
g32
g23
((lp67
tp68
Rp69
sg20
I00
sg37
Nsg21
g15
sg22
g23
((lp70
tp71
Rp72
sg28
g29
sg30
(dp73
sbsg12
g2
(g16
g4
Ntp74
Rp75
(dp76
g20
I00
sS'unitsPerJob'
p77
I1
sg21
g12
sg22
g23
((lp78
S'totalUnits'
p79
ag77
aS'userInputFiles'
p80
aS'splitting'
p81
aS'inputDBS'
p82
aS'outLFNDirBase'
p83
aS'publication'
p84
atp85
Rp86
sg28
g29
sg81
S'FileBased'
p87
sg82
S'phys03'
p88
sg32
g23
((lp89
tp90
Rp91
sg84
I00
sg83
S'/store/user/beozek/'
p92
sg37
Nsg30
(dp93
sg80
(lp94
S'/store/user/beozek/try-2/MiniAOD_1.root'
p95
asg79
I-1
sbsg11
g2
(g16
g4
Ntp96
Rp97
(dp98
S'outputFiles'
p99
(lp100
S'Ntuple.root'
p101
asS'sendExternalFolder'
p102
I01
sg20
I00
sg21
g11
sg22
g23
((lp103
S'psetName'
p104
aS'pluginName'
p105
ag99
aS'maxMemoryMB'
p106
ag102
atp107
Rp108
sg28
g29
sg30
(dp109
sg105
S'Analysis'
p110
sg32
g23
((lp111
tp112
Rp113
sg104
S'/nfs/dust/cms/user/beozek/uuh2-106X_v2/CMSSW_10_6_28/src/UHH2/core/python/ntuplewriter_mc_2018.py'
p114
sg37
Nsg106
I2500
sbsbsS'voGroup'
p115
g29
sS'Server'
p116
S'cmsweb.cern.ch'
p117
sS'instance'
p118
S'prod'
p119
sS'RequestName'
p120
V240207_070327:beozek_crab_5
p121
sS'voRole'
p122
S'NULL'
p123
sS'Port'
p124
g29
s.